cnumpy.core.multiarray
_reconstruct
p0
(cnumpy
ndarray
p1
(I0
tp2
S'b'
p3
tp4
Rp5
(I1
(L3L
tp6
cnumpy
dtype
p7
(S'S3'
p8
I0
I1
tp9
Rp10
(I3
S'|'
p11
NNNI3
I1
I0
tp12
bI00
S'\xe4\xba\xba\xe4\xbd\xa0\xe6\x88\x91'
p13
tp14
b.